target datalayout = "e-m:e-p270:32:32-p271:32:32-p272:64:64-i64:64-i128:128-f80:128-n8:16:32:64-S128"
target triple = "x86_64-pc-linux-gnu"

%struct.FT_Vector_ = type { i64, i64 }
%struct.SDF_Renderer_Module_ = type { %struct.FT_RendererRec_, i32, i8, i8, i8 }
%struct.FT_RendererRec_ = type { %struct.FT_ModuleRec_, ptr, i32, %struct.FT_Glyph_Class_, ptr, ptr, ptr }
%struct.FT_ModuleRec_ = type { ptr, ptr, ptr }
%struct.FT_Glyph_Class_ = type { i64, i32, ptr, ptr, ptr, ptr, ptr, ptr }
%struct.SDF_Raster_Params_ = type { %struct.FT_Raster_Params_, i32, i8, i8, i8 }
%struct.FT_Raster_Params_ = type { ptr, ptr, i32, ptr, ptr, ptr, ptr, ptr, %struct.FT_BBox_ }
%struct.FT_BBox_ = type { i64, i64, i64, i64 }
%struct.FT_GlyphSlotRec_ = type { ptr, ptr, ptr, i32, %struct.FT_Generic_, %struct.FT_Glyph_Metrics_, i64, i64, %struct.FT_Vector_, i32, %struct.FT_Bitmap_, i32, i32, %struct.FT_Outline_, i32, ptr, ptr, i64, i64, i64, ptr, ptr }
%struct.FT_Generic_ = type { ptr, ptr }
%struct.FT_Glyph_Metrics_ = type { i64, i64, i64, i64, i64, i64, i64, i64 }
%struct.FT_Bitmap_ = type { i32, i32, i32, ptr, i16, i8, i8, ptr }
%struct.FT_Outline_ = type { i16, i16, ptr, ptr, ptr, i32 }
%struct.FT_Slot_InternalRec_ = type { ptr, i32, i8, %struct.FT_Matrix_, %struct.FT_Vector_, ptr, i32 }
%struct.FT_Matrix_ = type { i64, i64, i64, i64 }

; Function Attrs: nounwind uwtable
define internal i32 @ft_bsdf_render(ptr noundef %0, ptr noundef %1, i32 noundef %2, ptr noundef %3) #0 {
  %5 = alloca ptr, align 8
  %6 = alloca ptr, align 8
  %7 = alloca i32, align 4
  %8 = alloca ptr, align 8
  %9 = alloca i32, align 4
  %10 = alloca ptr, align 8
  %11 = alloca ptr, align 8
  %12 = alloca ptr, align 8
  %13 = alloca %struct.FT_Bitmap_, align 8
  %14 = alloca i64, align 8
  %15 = alloca i64, align 8
  %16 = alloca %struct.SDF_Raster_Params_, align 8
  %17 = alloca ptr, align 8
  store ptr %0, ptr %5, align 8, !tbaa !27
  store ptr %1, ptr %6, align 8, !tbaa !29
  store i32 %2, ptr %7, align 4, !tbaa !31
  store ptr %3, ptr %8, align 8, !tbaa !32
  call void @llvm.lifetime.start.p0(i64 4, ptr %9) #7
  store i32 0, ptr %9, align 4, !tbaa !31
  call void @llvm.lifetime.start.p0(i64 8, ptr %10) #7
  store ptr null, ptr %10, align 8, !tbaa !38
  call void @llvm.lifetime.start.p0(i64 8, ptr %11) #7
  %18 = load ptr, ptr %6, align 8, !tbaa !29
  %19 = getelementptr inbounds nuw %struct.FT_GlyphSlotRec_, ptr %18, i32 0, i32 10
  store ptr %19, ptr %11, align 8, !tbaa !36
  call void @llvm.lifetime.start.p0(i64 8, ptr %12) #7
  store ptr null, ptr %12, align 8, !tbaa !27
  call void @llvm.lifetime.start.p0(i64 40, ptr %13) #7
  call void @llvm.lifetime.start.p0(i64 8, ptr %14) #7
  store i64 0, ptr %14, align 8, !tbaa !39
  call void @llvm.lifetime.start.p0(i64 8, ptr %15) #7
  store i64 0, ptr %15, align 8, !tbaa !39
  call void @llvm.lifetime.start.p0(i64 104, ptr %16) #7
  call void @llvm.lifetime.start.p0(i64 8, ptr %17) #7
  %20 = load ptr, ptr %5, align 8, !tbaa !27
  store ptr %20, ptr %17, align 8, !tbaa !8
  call void @FT_Bitmap_Init(ptr noundef %13)
  %21 = load ptr, ptr %17, align 8, !tbaa !8
  %22 = getelementptr inbounds nuw %struct.SDF_Renderer_Module_, ptr %21, i32 0, i32 0
  store ptr %22, ptr %12, align 8, !tbaa !27
  %23 = load ptr, ptr %12, align 8, !tbaa !27
  %24 = getelementptr inbounds nuw %struct.FT_RendererRec_, ptr %23, i32 0, i32 0
  %25 = getelementptr inbounds nuw %struct.FT_ModuleRec_, ptr %24, i32 0, i32 2
  %26 = load ptr, ptr %25, align 8, !tbaa !40
  store ptr %26, ptr %10, align 8, !tbaa !38
  %27 = load ptr, ptr %6, align 8, !tbaa !29
  %28 = getelementptr inbounds nuw %struct.FT_GlyphSlotRec_, ptr %27, i32 0, i32 9
  %29 = load i32, ptr %28, align 8, !tbaa !41
  %30 = load ptr, ptr %12, align 8, !tbaa !27
  %31 = getelementptr inbounds nuw %struct.FT_RendererRec_, ptr %30, i32 0, i32 2
  %32 = load i32, ptr %31, align 8, !tbaa !53
  %33 = icmp ne i32 %29, %32
  br i1 %33, label %34, label %35

34:                                               ; preds = %4
  store i32 18, ptr %9, align 4, !tbaa !31
  br label %140

35:                                               ; preds = %4
  %36 = load i32, ptr %7, align 4, !tbaa !31
  %37 = icmp ne i32 %36, 5
  br i1 %37, label %38, label %39

38:                                               ; preds = %35
  store i32 19, ptr %9, align 4, !tbaa !31
  br label %140

39:                                               ; preds = %35
  %40 = load ptr, ptr %8, align 8, !tbaa !32
  %41 = icmp ne ptr %40, null
  br i1 %41, label %42, label %46

42:                                               ; preds = %39
  br label %43

43:                                               ; preds = %42
  br label %44

44:                                               ; preds = %43
  br label %45

45:                                               ; preds = %44
  store i32 7, ptr %9, align 4, !tbaa !31
  br label %140

46:                                               ; preds = %39
  %47 = load ptr, ptr %11, align 8, !tbaa !36
  %48 = getelementptr inbounds nuw %struct.FT_Bitmap_, ptr %47, i32 0, i32 0
  %49 = load i32, ptr %48, align 8, !tbaa !60
  %50 = icmp ne i32 %49, 0
  br i1 %50, label %51, label %56

51:                                               ; preds = %46
  %52 = load ptr, ptr %11, align 8, !tbaa !36
  %53 = getelementptr inbounds nuw %struct.FT_Bitmap_, ptr %52, i32 0, i32 2
  %54 = load i32, ptr %53, align 8, !tbaa !61
  %55 = icmp ne i32 %54, 0
  br i1 %55, label %57, label %56

56:                                               ; preds = %51, %46
  br label %140

57:                                               ; preds = %51
  %58 = load ptr, ptr %6, align 8, !tbaa !29
  %59 = getelementptr inbounds nuw %struct.FT_GlyphSlotRec_, ptr %58, i32 0, i32 21
  %60 = load ptr, ptr %59, align 8, !tbaa !54
  %61 = getelementptr inbounds nuw %struct.FT_Slot_InternalRec_, ptr %60, i32 0, i32 1
  %62 = load i32, ptr %61, align 8, !tbaa !55
  %63 = and i32 %62, 1
  %64 = icmp ne i32 %63, 0
  br i1 %64, label %69, label %65

65:                                               ; preds = %57
  br label %66

66:                                               ; preds = %65
  br label %67

67:                                               ; preds = %66
  br label %68

68:                                               ; preds = %67
  store i32 6, ptr %9, align 4, !tbaa !31
  br label %140

69:                                               ; preds = %57
  call void @FT_Bitmap_New(ptr noundef %13)
  %70 = load ptr, ptr %17, align 8, !tbaa !8
  %71 = getelementptr inbounds nuw %struct.SDF_Renderer_Module_, ptr %70, i32 0, i32 1
  %72 = load i32, ptr %71, align 8, !tbaa !10
  %73 = zext i32 %72 to i64
  store i64 %73, ptr %14, align 8, !tbaa !39
  %74 = load ptr, ptr %17, align 8, !tbaa !8
  %75 = getelementptr inbounds nuw %struct.SDF_Renderer_Module_, ptr %74, i32 0, i32 1
  %76 = load i32, ptr %75, align 8, !tbaa !10
  %77 = zext i32 %76 to i64
  store i64 %77, ptr %15, align 8, !tbaa !39
  %78 = load ptr, ptr %11, align 8, !tbaa !36
  %79 = getelementptr inbounds nuw %struct.FT_Bitmap_, ptr %78, i32 0, i32 0
  %80 = load i32, ptr %79, align 8, !tbaa !60
  %81 = zext i32 %80 to i64
  %82 = load i64, ptr %15, align 8, !tbaa !39
  %83 = mul nsw i64 %82, 2
  %84 = add nsw i64 %81, %83
  %85 = trunc i64 %84 to i32
  %86 = getelementptr inbounds nuw %struct.FT_Bitmap_, ptr %13, i32 0, i32 0
  store i32 %85, ptr %86, align 8, !tbaa !60
  %87 = load ptr, ptr %11, align 8, !tbaa !36
  %88 = getelementptr inbounds nuw %struct.FT_Bitmap_, ptr %87, i32 0, i32 1
  %89 = load i32, ptr %88, align 4, !tbaa !62
  %90 = zext i32 %89 to i64
  %91 = load i64, ptr %14, align 8, !tbaa !39
  %92 = mul nsw i64 %91, 2
  %93 = add nsw i64 %90, %92
  %94 = trunc i64 %93 to i32
  %95 = getelementptr inbounds nuw %struct.FT_Bitmap_, ptr %13, i32 0, i32 1
  store i32 %94, ptr %95, align 4, !tbaa !62
  %96 = getelementptr inbounds nuw %struct.FT_Bitmap_, ptr %13, i32 0, i32 5
  store i8 2, ptr %96, align 2, !tbaa !63
  %97 = getelementptr inbounds nuw %struct.FT_Bitmap_, ptr %13, i32 0, i32 1
  %98 = load i32, ptr %97, align 4, !tbaa !62
  %99 = getelementptr inbounds nuw %struct.FT_Bitmap_, ptr %13, i32 0, i32 2
  store i32 %98, ptr %99, align 8, !tbaa !61
  %100 = getelementptr inbounds nuw %struct.FT_Bitmap_, ptr %13, i32 0, i32 4
  store i16 255, ptr %100, align 8, !tbaa !64
  %101 = load ptr, ptr %10, align 8, !tbaa !38
  %102 = getelementptr inbounds nuw %struct.FT_Bitmap_, ptr %13, i32 0, i32 2
  %103 = load i32, ptr %102, align 8, !tbaa !61
  %104 = sext i32 %103 to i64
  %105 = getelementptr inbounds nuw %struct.FT_Bitmap_, ptr %13, i32 0, i32 0
  %106 = load i32, ptr %105, align 8, !tbaa !60
  %107 = zext i32 %106 to i64
  %108 = call ptr @ft_mem_realloc(ptr noundef %101, i64 noundef %104, i64 noundef 0, i64 noundef %107, ptr noundef null, ptr noundef %9)
  %109 = getelementptr inbounds nuw %struct.FT_Bitmap_, ptr %13, i32 0, i32 3
  store ptr %108, ptr %109, align 8, !tbaa !59
  %110 = load i32, ptr %9, align 4, !tbaa !31
  %111 = icmp ne i32 %110, 0
  br i1 %111, label %112, label %113

112:                                              ; preds = %69
  br label %140

113:                                              ; preds = %69
  %114 = getelementptr inbounds nuw %struct.SDF_Raster_Params_, ptr %16, i32 0, i32 0
  %115 = getelementptr inbounds nuw %struct.FT_Raster_Params_, ptr %114, i32 0, i32 0
  store ptr %13, ptr %115, align 8, !tbaa !69
  %116 = load ptr, ptr %11, align 8, !tbaa !36
  %117 = getelementptr inbounds nuw %struct.SDF_Raster_Params_, ptr %16, i32 0, i32 0
  %118 = getelementptr inbounds nuw %struct.FT_Raster_Params_, ptr %117, i32 0, i32 1
  store ptr %116, ptr %118, align 8, !tbaa !73
  %119 = getelementptr inbounds nuw %struct.SDF_Raster_Params_, ptr %16, i32 0, i32 0
  %120 = getelementptr inbounds nuw %struct.FT_Raster_Params_, ptr %119, i32 0, i32 2
  store i32 8, ptr %120, align 8, !tbaa !74
  %121 = load ptr, ptr %17, align 8, !tbaa !8
  %122 = getelementptr inbounds nuw %struct.SDF_Renderer_Module_, ptr %121, i32 0, i32 1
  %123 = load i32, ptr %122, align 8, !tbaa !10
  %124 = getelementptr inbounds nuw %struct.SDF_Raster_Params_, ptr %16, i32 0, i32 1
  store i32 %123, ptr %124, align 8, !tbaa !75
  %125 = load ptr, ptr %17, align 8, !tbaa !8
  %126 = getelementptr inbounds nuw %struct.SDF_Renderer_Module_, ptr %125, i32 0, i32 2
  %127 = load i8, ptr %126, align 4, !tbaa !22
  %128 = getelementptr inbounds nuw %struct.SDF_Raster_Params_, ptr %16, i32 0, i32 2
  store i8 %127, ptr %128, align 4, !tbaa !76
  %129 = load ptr, ptr %17, align 8, !tbaa !8
  %130 = getelementptr inbounds nuw %struct.SDF_Renderer_Module_, ptr %129, i32 0, i32 3
  %131 = load i8, ptr %130, align 1, !tbaa !23
  %132 = getelementptr inbounds nuw %struct.SDF_Raster_Params_, ptr %16, i32 0, i32 3
  store i8 %131, ptr %132, align 1, !tbaa !77
  %133 = load ptr, ptr %12, align 8, !tbaa !27
  %134 = getelementptr inbounds nuw %struct.FT_RendererRec_, ptr %133, i32 0, i32 5
  %135 = load ptr, ptr %134, align 8, !tbaa !79
  %136 = load ptr, ptr %12, align 8, !tbaa !27
  %137 = getelementptr inbounds nuw %struct.FT_RendererRec_, ptr %136, i32 0, i32 4
  %138 = load ptr, ptr %137, align 8, !tbaa !80
  %139 = call i32 %135(ptr noundef %138, ptr noundef %16)
  store i32 %139, ptr %9, align 4, !tbaa !31
  br label %140

140:                                              ; preds = %113, %112, %68, %56, %45, %38, %34
  %141 = load i32, ptr %9, align 4, !tbaa !31
  %142 = icmp ne i32 %141, 0
  br i1 %142, label %189, label %143

143:                                              ; preds = %140
  %144 = load ptr, ptr %6, align 8, !tbaa !29
  %145 = getelementptr inbounds nuw %struct.FT_GlyphSlotRec_, ptr %144, i32 0, i32 21
  %146 = load ptr, ptr %145, align 8, !tbaa !54
  %147 = getelementptr inbounds nuw %struct.FT_Slot_InternalRec_, ptr %146, i32 0, i32 1
  %148 = load i32, ptr %147, align 8, !tbaa !55
  %149 = and i32 %148, 1
  %150 = icmp ne i32 %149, 0
  br i1 %150, label %151, label %161

151:                                              ; preds = %143
  br label %152

152:                                              ; preds = %151
  %153 = load ptr, ptr %10, align 8, !tbaa !38
  %154 = load ptr, ptr %11, align 8, !tbaa !36
  %155 = getelementptr inbounds nuw %struct.FT_Bitmap_, ptr %154, i32 0, i32 3
  %156 = load ptr, ptr %155, align 8, !tbaa !59
  call void @ft_mem_free(ptr noundef %153, ptr noundef %156)
  %157 = load ptr, ptr %11, align 8, !tbaa !36
  %158 = getelementptr inbounds nuw %struct.FT_Bitmap_, ptr %157, i32 0, i32 3
  store ptr null, ptr %158, align 8, !tbaa !59
  br label %159

159:                                              ; preds = %152
  br label %160

160:                                              ; preds = %159
  br label %161

161:                                              ; preds = %160, %143
  %162 = load ptr, ptr %6, align 8, !tbaa !29
  %163 = getelementptr inbounds nuw %struct.FT_GlyphSlotRec_, ptr %162, i32 0, i32 10
  call void @llvm.memcpy.p0.p0.i64(ptr align 8 %163, ptr align 8 %13, i64 40, i1 false), !tbaa.struct !93
  %164 = load i64, ptr %15, align 8, !tbaa !39
  %165 = load ptr, ptr %6, align 8, !tbaa !29
  %166 = getelementptr inbounds nuw %struct.FT_GlyphSlotRec_, ptr %165, i32 0, i32 12
  %167 = load i32, ptr %166, align 4, !tbaa !65
  %168 = sext i32 %167 to i64
  %169 = add nsw i64 %168, %164
  %170 = trunc i64 %169 to i32
  store i32 %170, ptr %166, align 4, !tbaa !65
  %171 = load i64, ptr %14, align 8, !tbaa !39
  %172 = load ptr, ptr %6, align 8, !tbaa !29
  %173 = getelementptr inbounds nuw %struct.FT_GlyphSlotRec_, ptr %172, i32 0, i32 11
  %174 = load i32, ptr %173, align 8, !tbaa !66
  %175 = sext i32 %174 to i64
  %176 = sub nsw i64 %175, %171
  %177 = trunc i64 %176 to i32
  store i32 %177, ptr %173, align 8, !tbaa !66
  %178 = getelementptr inbounds nuw %struct.FT_Bitmap_, ptr %13, i32 0, i32 3
  %179 = load ptr, ptr %178, align 8, !tbaa !59
  %180 = icmp ne ptr %179, null
  br i1 %180, label %181, label %188

181:                                              ; preds = %161
  %182 = load ptr, ptr %6, align 8, !tbaa !29
  %183 = getelementptr inbounds nuw %struct.FT_GlyphSlotRec_, ptr %182, i32 0, i32 21
  %184 = load ptr, ptr %183, align 8, !tbaa !54
  %185 = getelementptr inbounds nuw %struct.FT_Slot_InternalRec_, ptr %184, i32 0, i32 1
  %186 = load i32, ptr %185, align 8, !tbaa !55
  %187 = or i32 %186, 1
  store i32 %187, ptr %185, align 8, !tbaa !55
  br label %188

188:                                              ; preds = %181, %161
  br label %202

189:                                              ; preds = %140
  %190 = getelementptr inbounds nuw %struct.FT_Bitmap_, ptr %13, i32 0, i32 3
  %191 = load ptr, ptr %190, align 8, !tbaa !59
  %192 = icmp ne ptr %191, null
  br i1 %192, label %193, label %201

193:                                              ; preds = %189
  br label %194

194:                                              ; preds = %193
  %195 = load ptr, ptr %10, align 8, !tbaa !38
  %196 = getelementptr inbounds nuw %struct.FT_Bitmap_, ptr %13, i32 0, i32 3
  %197 = load ptr, ptr %196, align 8, !tbaa !59
  call void @ft_mem_free(ptr noundef %195, ptr noundef %197)
  %198 = getelementptr inbounds nuw %struct.FT_Bitmap_, ptr %13, i32 0, i32 3
  store ptr null, ptr %198, align 8, !tbaa !59
  br label %199

199:                                              ; preds = %194
  br label %200

200:                                              ; preds = %199
  br label %201

201:                                              ; preds = %200, %189
  br label %202

202:                                              ; preds = %201, %188
  %203 = load i32, ptr %9, align 4, !tbaa !31
  call void @llvm.lifetime.end.p0(i64 8, ptr %17) #7
  call void @llvm.lifetime.end.p0(i64 104, ptr %16) #7
  call void @llvm.lifetime.end.p0(i64 8, ptr %15) #7
  call void @llvm.lifetime.end.p0(i64 8, ptr %14) #7
  call void @llvm.lifetime.end.p0(i64 40, ptr %13) #7
  call void @llvm.lifetime.end.p0(i64 8, ptr %12) #7
  call void @llvm.lifetime.end.p0(i64 8, ptr %11) #7
  call void @llvm.lifetime.end.p0(i64 8, ptr %10) #7
  call void @llvm.lifetime.end.p0(i64 4, ptr %9) #7
  ret i32 %203
}