; Function Attrs: nounwind uwtable
define internal i32 @ft_bsdf_render(ptr noundef readonly captures(none) %0, ptr noundef %1, i32 noundef %2, ptr noundef readnone %3) #2 {
  %5 = alloca i32, align 4
  %6 = alloca %struct.FT_Bitmap_, align 8
  %7 = alloca %struct.SDF_Raster_Params_, align 8
  call void @llvm.lifetime.start.p0(i64 4, ptr nonnull %5) #11
  store i32 0, ptr %5, align 4, !tbaa !21
  %8 = getelementptr inbounds nuw i8, ptr %1, i64 152
  call void @llvm.lifetime.start.p0(i64 40, ptr nonnull %6) #11
  call void @llvm.lifetime.start.p0(i64 104, ptr nonnull %7) #11
  call void @FT_Bitmap_Init(ptr noundef nonnull %6) #11
  %9 = getelementptr inbounds nuw i8, ptr %0, i64 16
  %10 = load ptr, ptr %9, align 8, !tbaa !22
  %11 = getelementptr inbounds nuw i8, ptr %1, i64 144
  %12 = load i32, ptr %11, align 8, !tbaa !23
  %13 = getelementptr inbounds nuw i8, ptr %0, i64 32
  %14 = load i32, ptr %13, align 8, !tbaa !38
  %.not = icmp eq i32 %12, %14
  br i1 %.not, label %15, label %.thread.sink.split

15:                                               ; preds = %4
  %.not36 = icmp eq i32 %2, 5
  br i1 %.not36, label %16, label %.thread.sink.split

16:                                               ; preds = %15
  %.not37 = icmp eq ptr %3, null
  br i1 %.not37, label %17, label %.thread.sink.split

17:                                               ; preds = %16
  %18 = load i32, ptr %8, align 8, !tbaa !45
  %.not38 = icmp eq i32 %18, 0
  br i1 %.not38, label %thread-pre-split.thread, label %19

19:                                               ; preds = %17
  %20 = getelementptr inbounds nuw i8, ptr %1, i64 160
  %21 = load i32, ptr %20, align 8, !tbaa !46
  %.not39 = icmp eq i32 %21, 0
  br i1 %.not39, label %thread-pre-split.thread, label %22

22:                                               ; preds = %19
  %23 = getelementptr inbounds nuw i8, ptr %1, i64 296
  %24 = load ptr, ptr %23, align 8, !tbaa !39
  %25 = getelementptr inbounds nuw i8, ptr %24, i64 8
  %26 = load i32, ptr %25, align 8, !tbaa !40
  %27 = and i32 %26, 1
  %.not40 = icmp eq i32 %27, 0
  br i1 %.not40, label %.thread.sink.split, label %28

28:                                               ; preds = %22
  call void @FT_Bitmap_New(ptr noundef nonnull %6) #11
  %29 = getelementptr inbounds nuw i8, ptr %0, i64 128
  %30 = load i32, ptr %29, align 8, !tbaa !3
  %31 = load i32, ptr %8, align 8, !tbaa !45
  %32 = shl i32 %30, 1
  %33 = add i32 %31, %32
  store i32 %33, ptr %6, align 8, !tbaa !45
  %34 = getelementptr inbounds nuw i8, ptr %1, i64 156
  %35 = load i32, ptr %34, align 4, !tbaa !47
  %36 = add i32 %35, %32
  %37 = getelementptr inbounds nuw i8, ptr %6, i64 4
  store i32 %36, ptr %37, align 4, !tbaa !47
  %38 = getelementptr inbounds nuw i8, ptr %6, i64 26
  store i8 2, ptr %38, align 2, !tbaa !48
  %39 = getelementptr inbounds nuw i8, ptr %6, i64 8
  store i32 %36, ptr %39, align 8, !tbaa !46
  %40 = getelementptr inbounds nuw i8, ptr %6, i64 24
  store i16 255, ptr %40, align 8, !tbaa !49
  %41 = sext i32 %36 to i64
  %42 = zext i32 %33 to i64
  %43 = call ptr @ft_mem_realloc(ptr noundef %10, i64 noundef %41, i64 noundef 0, i64 noundef %42, ptr noundef null, ptr noundef nonnull %5) #11
  %44 = getelementptr inbounds nuw i8, ptr %6, i64 16
  store ptr %43, ptr %44, align 8, !tbaa !44
  %45 = load i32, ptr %5, align 4, !tbaa !21
  %.not41 = icmp eq i32 %45, 0
  br i1 %.not41, label %thread-pre-split, label %.thread

thread-pre-split:                                 ; preds = %28
  store ptr %6, ptr %7, align 8, !tbaa !54
  %46 = getelementptr inbounds nuw i8, ptr %7, i64 8
  store ptr %8, ptr %46, align 8, !tbaa !59
  %47 = getelementptr inbounds nuw i8, ptr %7, i64 16
  store i32 8, ptr %47, align 8, !tbaa !60
  %48 = load i32, ptr %29, align 8, !tbaa !3
  %49 = getelementptr inbounds nuw i8, ptr %7, i64 96
  store i32 %48, ptr %49, align 8, !tbaa !61
  %50 = getelementptr inbounds nuw i8, ptr %0, i64 132
  %51 = load i8, ptr %50, align 4, !tbaa !18
  %52 = getelementptr inbounds nuw i8, ptr %7, i64 100
  store i8 %51, ptr %52, align 4, !tbaa !62
  %53 = getelementptr inbounds nuw i8, ptr %0, i64 133
  %54 = load i8, ptr %53, align 1, !tbaa !19
  %55 = getelementptr inbounds nuw i8, ptr %7, i64 101
  store i8 %54, ptr %55, align 1, !tbaa !63
  %56 = getelementptr inbounds nuw i8, ptr %0, i64 112
  %57 = load ptr, ptr %56, align 8, !tbaa !65
  %58 = getelementptr inbounds nuw i8, ptr %0, i64 104
  %59 = load ptr, ptr %58, align 8, !tbaa !66
  %60 = call i32 %57(ptr noundef %59, ptr noundef nonnull %7) #11
  store i32 %60, ptr %5, align 4, !tbaa !21
  %61 = icmp eq i32 %60, 0
  br i1 %61, label %thread-pre-split.thread, label %.thread

thread-pre-split.thread:                          ; preds = %17, %19, %thread-pre-split
  %.050 = phi i32 [ %30, %thread-pre-split ], [ 0, %19 ], [ 0, %17 ]
  %62 = getelementptr inbounds nuw i8, ptr %1, i64 296
  %63 = load ptr, ptr %62, align 8, !tbaa !39
  %64 = getelementptr inbounds nuw i8, ptr %63, i64 8
  %65 = load i32, ptr %64, align 8, !tbaa !40
  %66 = and i32 %65, 1
  %.not43 = icmp eq i32 %66, 0
  br i1 %.not43, label %70, label %67

67:                                               ; preds = %thread-pre-split.thread
  %68 = getelementptr inbounds nuw i8, ptr %1, i64 168
  %69 = load ptr, ptr %68, align 8, !tbaa !44
  call void @ft_mem_free(ptr noundef %10, ptr noundef %69) #11
  br label %70

70:                                               ; preds = %67, %thread-pre-split.thread
  call void @llvm.memcpy.p0.p0.i64(ptr noundef nonnull align 8 dereferenceable(40) %8, ptr noundef nonnull align 8 dereferenceable(40) %6, i64 40, i1 false), !tbaa.struct !74
  %71 = getelementptr inbounds nuw i8, ptr %1, i64 196
  %72 = load i32, ptr %71, align 4, !tbaa !50
  %73 = add i32 %72, %.050
  store i32 %73, ptr %71, align 4, !tbaa !50
  %74 = getelementptr inbounds nuw i8, ptr %1, i64 192
  %75 = load i32, ptr %74, align 8, !tbaa !51
  %76 = sub i32 %75, %.050
  store i32 %76, ptr %74, align 8, !tbaa !51
  %77 = getelementptr inbounds nuw i8, ptr %6, i64 16
  %78 = load ptr, ptr %77, align 8, !tbaa !44
  %.not44 = icmp eq ptr %78, null
  br i1 %.not44, label %87, label %79

79:                                               ; preds = %70
  %80 = load ptr, ptr %62, align 8, !tbaa !39
  %81 = getelementptr inbounds nuw i8, ptr %80, i64 8
  %82 = load i32, ptr %81, align 8, !tbaa !40
  %83 = or i32 %82, 1
  store i32 %83, ptr %81, align 8, !tbaa !40
  br label %87

.thread.sink.split:                               ; preds = %22, %16, %15, %4
  %.sink = phi i32 [ 18, %4 ], [ 19, %15 ], [ 7, %16 ], [ 6, %22 ]
  store i32 %.sink, ptr %5, align 4, !tbaa !21
  br label %.thread

.thread:                                          ; preds = %.thread.sink.split, %28, %thread-pre-split
  %84 = getelementptr inbounds nuw i8, ptr %6, i64 16
  %85 = load ptr, ptr %84, align 8, !tbaa !44
  %.not45 = icmp eq ptr %85, null
  br i1 %.not45, label %87, label %86

86:                                               ; preds = %.thread
  call void @ft_mem_free(ptr noundef %10, ptr noundef nonnull %85) #11
  br label %87

87:                                               ; preds = %.thread, %86, %70, %79
  %88 = load i32, ptr %5, align 4, !tbaa !21
  call void @llvm.lifetime.end.p0(i64 104, ptr nonnull %7) #11
  call void @llvm.lifetime.end.p0(i64 40, ptr nonnull %6) #11
  call void @llvm.lifetime.end.p0(i64 4, ptr nonnull %5) #11
  ret i32 %88
}